(lp0
(S'cppflags'
p1
ccopy_reg
_reconstructor
p2
(cino.utils
SpaceList
p3
c__builtin__
list
p4
(lp5
S'-mmcu=atmega328p'
p6
aS'-DF_CPU=16000000L'
p7
aS'-DARDUINO=105'
p8
aS'-I/usr/share/arduino/hardware/arduino/cores/arduino'
p9
aS'-ffunction-sections'
p10
aS'-fdata-sections'
p11
aS'-g'
p12
aS'-Os'
p13
aS'-w'
p14
aS'-I/usr/share/arduino/hardware/arduino/variants/standard'
p15
aS'-Ilib/SumoSense'
p16
aS'-Ilib/redbot'
p17
aS'-Ilib/redbot/RedBot_Experiments'
p18
aS'-Ilib/redbot/RedBot_Experiments/Exp9_SerialDrive'
p19
aS'-Ilib/redbot/RedBot_Experiments/Exp2_DriveForward'
p20
aS'-Ilib/redbot/RedBot_Experiments/Exp8_2_WindUp'
p21
aS'-Ilib/redbot/RedBot_Experiments/Exp6_LineFollowing_IRSensors'
p22
aS'-Ilib/redbot/RedBot_Experiments/Exp3_Turning'
p23
aS'-Ilib/redbot/RedBot_Experiments/Exp5_Bumpers'
p24
aS'-Ilib/redbot/RedBot_Experiments/Exp1_BasicTest'
p25
aS'-Ilib/redbot/RedBot_Experiments/Exp7_1_RotaryEncoder'
p26
aS'-Ilib/redbot/RedBot_Experiments/Exp8_1_AccelerometerRead'
p27
aS'-Ilib/redbot/RedBot_Experiments/Exp7_2_DriveDistance'
p28
aS'-Ilib/redbot/RedBot_Experiments/Exp4_MakingSounds'
p29
aS'-I/usr/share/arduino/hardware/arduino/cores/arduino'
p30
aS'-I/usr/share/arduino/hardware/arduino/cores/arduino/avr-libc'
p31
atp32
Rp33
tp34
a(S'cxx'
p35
S'/usr/share/arduino/hardware/tools/avr/bin/avr-g++'
p36
tp37
a(S'build_dir'
p38
S'.build/uno'
p39
tp40
a(S'avrdude'
p41
S'/usr/share/arduino/hardware/tools/avrdude'
p42
tp43
a(S'ar'
p44
S'/usr/share/arduino/hardware/tools/avr/bin/avr-ar'
p45
tp46
a(S'names'
p47
(dp48
S'cpp'
p49
S'%s.cpp'
p50
sS'obj'
p51
S'%s.o'
p52
sS'lib'
p53
S'lib%s.a'
p54
sS'deps'
p55
S'%s.d'
p56
stp57
a(S'ldflags'
p58
g2
(g3
g4
(lp59
g6
aS'-Wl,-Os'
p60
aS'-Wl,--gc-sections'
p61
atp62
Rp63
tp64
a(S'arduino_lib_version'
p65
g2
(cino.environment
Version
p66
c__builtin__
tuple
p67
(I1
I0
I5
tp68
tp69
Rp70
tp71
a(S'objcopy'
p72
S'/usr/share/arduino/hardware/tools/avr/bin/avr-objcopy'
p73
tp74
a(S'board_models'
p75
cino.environment
BoardModels
p76
((lp77
(lp78
S'uno'
p79
a(dp80
S'bootloader'
p81
(dp82
S'extended_fuses'
p83
S'0x05'
p84
sS'high_fuses'
p85
S'0xde'
p86
sS'low_fuses'
p87
S'0xff'
p88
sS'lock_bits'
p89
S'0x0F'
p90
sS'file'
p91
S'optiboot_atmega328.hex'
p92
sS'path'
p93
S'optiboot'
p94
sS'unlock_bits'
p95
S'0x3F'
p96
ssS'build'
p97
(dp98
S'core'
p99
S'arduino'
p100
sS'mcu'
p101
S'atmega328p'
p102
sS'f_cpu'
p103
S'16000000L'
p104
sS'variant'
p105
S'standard'
p106
ssS'name'
p107
S'Arduino Uno'
p108
sS'upload'
p109
(dp110
S'speed'
p111
S'115200'
p112
sS'maximum_size'
p113
S'32256'
p114
sS'protocol'
p115
S'arduino'
p116
ssaa(lp117
S'atmega328'
p118
a(dp119
S'bootloader'
p120
(dp121
S'extended_fuses'
p122
S'0x05'
p123
sS'high_fuses'
p124
S'0xDA'
p125
sS'low_fuses'
p126
S'0xFF'
p127
sS'lock_bits'
p128
S'0x0F'
p129
sS'file'
p130
S'ATmegaBOOT_168_atmega328.hex'
p131
sS'path'
p132
S'atmega'
p133
sS'unlock_bits'
p134
S'0x3F'
p135
ssS'build'
p136
(dp137
S'core'
p138
S'arduino'
p139
sS'mcu'
p140
S'atmega328p'
p141
sS'f_cpu'
p142
S'16000000L'
p143
sS'variant'
p144
S'standard'
p145
ssS'name'
p146
S'Arduino Duemilanove w/ ATmega328'
p147
sS'upload'
p148
(dp149
S'speed'
p150
S'57600'
p151
sS'maximum_size'
p152
S'30720'
p153
sS'protocol'
p154
S'arduino'
p155
ssaa(lp156
S'diecimila'
p157
a(dp158
S'bootloader'
p159
(dp160
S'extended_fuses'
p161
S'0x00'
p162
sS'high_fuses'
p163
S'0xdd'
p164
sS'low_fuses'
p165
S'0xff'
p166
sS'lock_bits'
p167
S'0x0F'
p168
sS'file'
p169
S'ATmegaBOOT_168_diecimila.hex'
p170
sS'path'
p171
S'atmega'
p172
sS'unlock_bits'
p173
S'0x3F'
p174
ssS'build'
p175
(dp176
S'core'
p177
S'arduino'
p178
sS'mcu'
p179
S'atmega168'
p180
sS'f_cpu'
p181
S'16000000L'
p182
sS'variant'
p183
S'standard'
p184
ssS'name'
p185
S'Arduino Diecimila or Duemilanove w/ ATmega168'
p186
sS'upload'
p187
(dp188
S'speed'
p189
S'19200'
p190
sS'maximum_size'
p191
S'14336'
p192
sS'protocol'
p193
S'arduino'
p194
ssaa(lp195
S'nano328'
p196
a(dp197
S'bootloader'
p198
(dp199
S'extended_fuses'
p200
S'0x05'
p201
sS'high_fuses'
p202
S'0xDA'
p203
sS'low_fuses'
p204
S'0xFF'
p205
sS'lock_bits'
p206
S'0x0F'
p207
sS'file'
p208
S'ATmegaBOOT_168_atmega328.hex'
p209
sS'path'
p210
S'atmega'
p211
sS'unlock_bits'
p212
S'0x3F'
p213
ssS'build'
p214
(dp215
S'core'
p216
S'arduino'
p217
sS'mcu'
p218
S'atmega328p'
p219
sS'f_cpu'
p220
S'16000000L'
p221
sS'variant'
p222
S'eightanaloginputs'
p223
ssS'name'
p224
S'Arduino Nano w/ ATmega328'
p225
sS'upload'
p226
(dp227
S'speed'
p228
S'57600'
p229
sS'maximum_size'
p230
S'30720'
p231
sS'protocol'
p232
S'arduino'
p233
ssaa(lp234
S'nano'
p235
a(dp236
S'bootloader'
p237
(dp238
S'extended_fuses'
p239
S'0x00'
p240
sS'high_fuses'
p241
S'0xdd'
p242
sS'low_fuses'
p243
S'0xff'
p244
sS'lock_bits'
p245
S'0x0F'
p246
sS'file'
p247
S'ATmegaBOOT_168_diecimila.hex'
p248
sS'path'
p249
S'atmega'
p250
sS'unlock_bits'
p251
S'0x3F'
p252
ssS'build'
p253
(dp254
S'core'
p255
S'arduino'
p256
sS'mcu'
p257
S'atmega168'
p258
sS'f_cpu'
p259
S'16000000L'
p260
sS'variant'
p261
S'eightanaloginputs'
p262
ssS'name'
p263
S'Arduino Nano w/ ATmega168'
p264
sS'upload'
p265
(dp266
S'speed'
p267
S'19200'
p268
sS'maximum_size'
p269
S'14336'
p270
sS'protocol'
p271
S'arduino'
p272
ssaa(lp273
S'mega2560'
p274
a(dp275
S'bootloader'
p276
(dp277
S'extended_fuses'
p278
S'0xFD'
p279
sS'high_fuses'
p280
S'0xD8'
p281
sS'low_fuses'
p282
S'0xFF'
p283
sS'lock_bits'
p284
S'0x0F'
p285
sS'file'
p286
S'stk500boot_v2_mega2560.hex'
p287
sS'path'
p288
S'stk500v2'
p289
sS'unlock_bits'
p290
S'0x3F'
p291
ssS'build'
p292
(dp293
S'core'
p294
S'arduino'
p295
sS'mcu'
p296
S'atmega2560'
p297
sS'f_cpu'
p298
S'16000000L'
p299
sS'variant'
p300
S'mega'
p301
ssS'name'
p302
S'Arduino Mega 2560 or Mega ADK'
p303
sS'upload'
p304
(dp305
S'speed'
p306
S'115200'
p307
sS'maximum_size'
p308
S'258048'
p309
sS'protocol'
p310
S'wiring'
p311
ssaa(lp312
S'mega'
p313
a(dp314
S'bootloader'
p315
(dp316
S'extended_fuses'
p317
S'0xF5'
p318
sS'high_fuses'
p319
S'0xDA'
p320
sS'low_fuses'
p321
S'0xFF'
p322
sS'lock_bits'
p323
S'0x0F'
p324
sS'file'
p325
S'ATmegaBOOT_168_atmega1280.hex'
p326
sS'path'
p327
S'atmega'
p328
sS'unlock_bits'
p329
S'0x3F'
p330
ssS'build'
p331
(dp332
S'core'
p333
S'arduino'
p334
sS'mcu'
p335
S'atmega1280'
p336
sS'f_cpu'
p337
S'16000000L'
p338
sS'variant'
p339
S'mega'
p340
ssS'name'
p341
S'Arduino Mega (ATmega1280)'
p342
sS'upload'
p343
(dp344
S'speed'
p345
S'57600'
p346
sS'maximum_size'
p347
S'126976'
p348
sS'protocol'
p349
S'arduino'
p350
ssaa(lp351
S'leonardo'
p352
a(dp353
S'bootloader'
p354
(dp355
S'extended_fuses'
p356
S'0xcb'
p357
sS'high_fuses'
p358
S'0xd8'
p359
sS'low_fuses'
p360
S'0xff'
p361
sS'lock_bits'
p362
S'0x2F'
p363
sS'file'
p364
S'Caterina-Leonardo.hex'
p365
sS'path'
p366
S'caterina'
p367
sS'unlock_bits'
p368
S'0x3F'
p369
ssS'build'
p370
(dp371
S'core'
p372
S'arduino'
p373
sS'f_cpu'
p374
S'16000000L'
p375
sS'vid'
p376
S'0x2341'
p377
sS'pid'
p378
S'0x8036'
p379
sS'variant'
p380
S'leonardo'
p381
sS'mcu'
p382
S'atmega32u4'
p383
ssS'name'
p384
S'Arduino Leonardo'
p385
sS'upload'
p386
(dp387
S'speed'
p388
S'57600'
p389
sS'maximum_size'
p390
S'28672'
p391
sS'protocol'
p392
S'avr109'
p393
sS'disable_flushing'
p394
S'true'
p395
ssaa(lp396
S'esplora'
p397
a(dp398
S'bootloader'
p399
(dp400
S'extended_fuses'
p401
S'0xcb'
p402
sS'high_fuses'
p403
S'0xd8'
p404
sS'low_fuses'
p405
S'0xff'
p406
sS'lock_bits'
p407
S'0x2F'
p408
sS'file'
p409
S'Caterina-Esplora.hex'
p410
sS'path'
p411
S'caterina'
p412
sS'unlock_bits'
p413
S'0x3F'
p414
ssS'build'
p415
(dp416
S'core'
p417
S'arduino'
p418
sS'f_cpu'
p419
S'16000000L'
p420
sS'vid'
p421
S'0x2341'
p422
sS'pid'
p423
S'0x803C'
p424
sS'variant'
p425
S'leonardo'
p426
sS'mcu'
p427
S'atmega32u4'
p428
ssS'name'
p429
S'Arduino Esplora'
p430
sS'upload'
p431
(dp432
S'speed'
p433
S'57600'
p434
sS'maximum_size'
p435
S'28672'
p436
sS'protocol'
p437
S'avr109'
p438
sS'disable_flushing'
p439
S'true'
p440
ssaa(lp441
S'micro'
p442
a(dp443
S'bootloader'
p444
(dp445
S'extended_fuses'
p446
S'0xcb'
p447
sS'high_fuses'
p448
S'0xd8'
p449
sS'low_fuses'
p450
S'0xff'
p451
sS'lock_bits'
p452
S'0x2F'
p453
sS'file'
p454
S'Caterina-Micro.hex'
p455
sS'path'
p456
S'caterina'
p457
sS'unlock_bits'
p458
S'0x3F'
p459
ssS'build'
p460
(dp461
S'core'
p462
S'arduino'
p463
sS'f_cpu'
p464
S'16000000L'
p465
sS'vid'
p466
S'0x2341'
p467
sS'pid'
p468
S'0x8037'
p469
sS'variant'
p470
S'micro'
p471
sS'mcu'
p472
S'atmega32u4'
p473
ssS'name'
p474
S'Arduino Micro'
p475
sS'upload'
p476
(dp477
S'speed'
p478
S'57600'
p479
sS'maximum_size'
p480
S'28672'
p481
sS'protocol'
p482
S'avr109'
p483
sS'disable_flushing'
p484
S'true'
p485
ssaa(lp486
S'mini328'
p487
a(dp488
S'bootloader'
p489
(dp490
S'extended_fuses'
p491
S'0x05'
p492
sS'high_fuses'
p493
S'0xd8'
p494
sS'low_fuses'
p495
S'0xff'
p496
sS'lock_bits'
p497
S'0x0F'
p498
sS'file'
p499
S'optiboot_atmega328-Mini.hex'
p500
sS'path'
p501
S'optiboot'
p502
sS'unlock_bits'
p503
S'0x3F'
p504
ssS'build'
p505
(dp506
S'core'
p507
S'arduino'
p508
sS'mcu'
p509
S'atmega328p'
p510
sS'f_cpu'
p511
S'16000000L'
p512
sS'variant'
p513
S'eightanaloginputs'
p514
ssS'name'
p515
S'Arduino Mini w/ ATmega328'
p516
sS'upload'
p517
(dp518
S'speed'
p519
S'115200'
p520
sS'maximum_size'
p521
S'28672'
p522
sS'protocol'
p523
S'arduino'
p524
ssaa(lp525
S'mini'
p526
a(dp527
S'bootloader'
p528
(dp529
S'extended_fuses'
p530
S'0x00'
p531
sS'high_fuses'
p532
S'0xdd'
p533
sS'low_fuses'
p534
S'0xff'
p535
sS'lock_bits'
p536
S'0x0F'
p537
sS'file'
p538
S'ATmegaBOOT_168_ng.hex'
p539
sS'path'
p540
S'atmega'
p541
sS'unlock_bits'
p542
S'0x3F'
p543
ssS'build'
p544
(dp545
S'core'
p546
S'arduino'
p547
sS'mcu'
p548
S'atmega168'
p549
sS'f_cpu'
p550
S'16000000L'
p551
sS'variant'
p552
S'eightanaloginputs'
p553
ssS'name'
p554
S'Arduino Mini w/ ATmega168'
p555
sS'upload'
p556
(dp557
S'speed'
p558
S'19200'
p559
sS'maximum_size'
p560
S'14336'
p561
sS'protocol'
p562
S'arduino'
p563
ssaa(lp564
S'ethernet'
p565
a(dp566
S'bootloader'
p567
(dp568
S'extended_fuses'
p569
S'0x05'
p570
sS'high_fuses'
p571
S'0xde'
p572
sS'low_fuses'
p573
S'0xff'
p574
sS'lock_bits'
p575
S'0x0F'
p576
sS'file'
p577
S'optiboot_atmega328.hex'
p578
sS'path'
p579
S'optiboot'
p580
sS'unlock_bits'
p581
S'0x3F'
p582
ssS'build'
p583
(dp584
S'f_cpu'
p585
S'16000000L'
p586
sS'mcu'
p587
S'atmega328p'
p588
sS'variant'
p589
S'standard'
p590
sS'core'
p591
S'arduino'
p592
ssS'name'
p593
S'Arduino Ethernet'
p594
sS'upload'
p595
(dp596
S'speed'
p597
S'115200'
p598
sS'maximum_size'
p599
S'32256'
p600
sS'protocol'
p601
S'arduino'
p602
ssaa(lp603
S'fio'
p604
a(dp605
S'bootloader'
p606
(dp607
S'extended_fuses'
p608
S'0x05'
p609
sS'high_fuses'
p610
S'0xDA'
p611
sS'low_fuses'
p612
S'0xFF'
p613
sS'lock_bits'
p614
S'0x0F'
p615
sS'file'
p616
S'ATmegaBOOT_168_atmega328_pro_8MHz.hex'
p617
sS'path'
p618
S'arduino:atmega'
p619
sS'unlock_bits'
p620
S'0x3F'
p621
ssS'build'
p622
(dp623
S'core'
p624
S'arduino'
p625
sS'mcu'
p626
S'atmega328p'
p627
sS'f_cpu'
p628
S'8000000L'
p629
sS'variant'
p630
S'eightanaloginputs'
p631
ssS'name'
p632
S'Arduino Fio'
p633
sS'upload'
p634
(dp635
S'speed'
p636
S'57600'
p637
sS'maximum_size'
p638
S'30720'
p639
sS'protocol'
p640
S'arduino'
p641
ssaa(lp642
S'bt328'
p643
a(dp644
S'bootloader'
p645
(dp646
S'extended_fuses'
p647
S'0x05'
p648
sS'high_fuses'
p649
S'0xd8'
p650
sS'low_fuses'
p651
S'0xff'
p652
sS'lock_bits'
p653
S'0x0F'
p654
sS'file'
p655
S'ATmegaBOOT_168_atmega328_bt.hex'
p656
sS'path'
p657
S'bt'
p658
sS'unlock_bits'
p659
S'0x3F'
p660
ssS'build'
p661
(dp662
S'core'
p663
S'arduino'
p664
sS'mcu'
p665
S'atmega328p'
p666
sS'f_cpu'
p667
S'16000000L'
p668
sS'variant'
p669
S'eightanaloginputs'
p670
ssS'name'
p671
S'Arduino BT w/ ATmega328'
p672
sS'upload'
p673
(dp674
S'speed'
p675
S'19200'
p676
sS'maximum_size'
p677
S'28672'
p678
sS'protocol'
p679
S'arduino'
p680
sS'disable_flushing'
p681
S'true'
p682
ssaa(lp683
S'bt'
p684
a(dp685
S'bootloader'
p686
(dp687
S'extended_fuses'
p688
S'0x00'
p689
sS'high_fuses'
p690
S'0xdd'
p691
sS'low_fuses'
p692
S'0xff'
p693
sS'lock_bits'
p694
S'0x0F'
p695
sS'file'
p696
S'ATmegaBOOT_168.hex'
p697
sS'path'
p698
S'bt'
p699
sS'unlock_bits'
p700
S'0x3F'
p701
ssS'build'
p702
(dp703
S'core'
p704
S'arduino'
p705
sS'mcu'
p706
S'atmega168'
p707
sS'f_cpu'
p708
S'16000000L'
p709
sS'variant'
p710
S'eightanaloginputs'
p711
ssS'name'
p712
S'Arduino BT w/ ATmega168'
p713
sS'upload'
p714
(dp715
S'speed'
p716
S'19200'
p717
sS'maximum_size'
p718
S'14336'
p719
sS'protocol'
p720
S'arduino'
p721
sS'disable_flushing'
p722
S'true'
p723
ssaa(lp724
S'LilyPadUSB'
p725
a(dp726
S'bootloader'
p727
(dp728
S'extended_fuses'
p729
S'0xce'
p730
sS'high_fuses'
p731
S'0xd8'
p732
sS'low_fuses'
p733
S'0xff'
p734
sS'lock_bits'
p735
S'0x2F'
p736
sS'file'
p737
S'Caterina-LilyPadUSB.hex'
p738
sS'path'
p739
S'caterina-LilyPadUSB'
p740
sS'unlock_bits'
p741
S'0x3F'
p742
ssS'build'
p743
(dp744
S'core'
p745
S'arduino'
p746
sS'f_cpu'
p747
S'8000000L'
p748
sS'vid'
p749
S'0x1B4F'
p750
sS'pid'
p751
S'0x9208'
p752
sS'variant'
p753
S'leonardo'
p754
sS'mcu'
p755
S'atmega32u4'
p756
ssS'name'
p757
S'LilyPad Arduino USB'
p758
sS'upload'
p759
(dp760
S'speed'
p761
S'57600'
p762
sS'maximum_size'
p763
S'28672'
p764
sS'protocol'
p765
S'avr109'
p766
sS'disable_flushing'
p767
S'true'
p768
ssaa(lp769
S'lilypad328'
p770
a(dp771
S'bootloader'
p772
(dp773
S'extended_fuses'
p774
S'0x05'
p775
sS'high_fuses'
p776
S'0xDA'
p777
sS'low_fuses'
p778
S'0xFF'
p779
sS'lock_bits'
p780
S'0x0F'
p781
sS'file'
p782
S'ATmegaBOOT_168_atmega328_pro_8MHz.hex'
p783
sS'path'
p784
S'atmega'
p785
sS'unlock_bits'
p786
S'0x3F'
p787
ssS'build'
p788
(dp789
S'core'
p790
S'arduino'
p791
sS'mcu'
p792
S'atmega328p'
p793
sS'f_cpu'
p794
S'8000000L'
p795
sS'variant'
p796
S'standard'
p797
ssS'name'
p798
S'LilyPad Arduino w/ ATmega328'
p799
sS'upload'
p800
(dp801
S'speed'
p802
S'57600'
p803
sS'maximum_size'
p804
S'30720'
p805
sS'protocol'
p806
S'arduino'
p807
ssaa(lp808
S'lilypad'
p809
a(dp810
S'bootloader'
p811
(dp812
S'extended_fuses'
p813
S'0x00'
p814
sS'high_fuses'
p815
S'0xdd'
p816
sS'low_fuses'
p817
S'0xe2'
p818
sS'lock_bits'
p819
S'0x0F'
p820
sS'file'
p821
S'LilyPadBOOT_168.hex'
p822
sS'path'
p823
S'lilypad'
p824
sS'unlock_bits'
p825
S'0x3F'
p826
ssS'build'
p827
(dp828
S'core'
p829
S'arduino'
p830
sS'mcu'
p831
S'atmega168'
p832
sS'f_cpu'
p833
S'8000000L'
p834
sS'variant'
p835
S'standard'
p836
ssS'name'
p837
S'LilyPad Arduino w/ ATmega168'
p838
sS'upload'
p839
(dp840
S'speed'
p841
S'19200'
p842
sS'maximum_size'
p843
S'14336'
p844
sS'protocol'
p845
S'arduino'
p846
ssaa(lp847
S'pro5v328'
p848
a(dp849
S'bootloader'
p850
(dp851
S'extended_fuses'
p852
S'0x05'
p853
sS'high_fuses'
p854
S'0xDA'
p855
sS'low_fuses'
p856
S'0xFF'
p857
sS'lock_bits'
p858
S'0x0F'
p859
sS'file'
p860
S'ATmegaBOOT_168_atmega328.hex'
p861
sS'path'
p862
S'atmega'
p863
sS'unlock_bits'
p864
S'0x3F'
p865
ssS'build'
p866
(dp867
S'core'
p868
S'arduino'
p869
sS'mcu'
p870
S'atmega328p'
p871
sS'f_cpu'
p872
S'16000000L'
p873
sS'variant'
p874
S'standard'
p875
ssS'name'
p876
S'Arduino Pro or Pro Mini (5V, 16 MHz) w/ ATmega328'
p877
sS'upload'
p878
(dp879
S'speed'
p880
S'57600'
p881
sS'maximum_size'
p882
S'30720'
p883
sS'protocol'
p884
S'arduino'
p885
ssaa(lp886
S'pro5v'
p887
a(dp888
S'bootloader'
p889
(dp890
S'extended_fuses'
p891
S'0x00'
p892
sS'high_fuses'
p893
S'0xdd'
p894
sS'low_fuses'
p895
S'0xff'
p896
sS'lock_bits'
p897
S'0x0F'
p898
sS'file'
p899
S'ATmegaBOOT_168_diecimila.hex'
p900
sS'path'
p901
S'atmega'
p902
sS'unlock_bits'
p903
S'0x3F'
p904
ssS'build'
p905
(dp906
S'core'
p907
S'arduino'
p908
sS'mcu'
p909
S'atmega168'
p910
sS'f_cpu'
p911
S'16000000L'
p912
sS'variant'
p913
S'standard'
p914
ssS'name'
p915
S'Arduino Pro or Pro Mini (5V, 16 MHz) w/ ATmega168'
p916
sS'upload'
p917
(dp918
S'speed'
p919
S'19200'
p920
sS'maximum_size'
p921
S'14336'
p922
sS'protocol'
p923
S'arduino'
p924
ssaa(lp925
S'pro328'
p926
a(dp927
S'bootloader'
p928
(dp929
S'extended_fuses'
p930
S'0x05'
p931
sS'high_fuses'
p932
S'0xDA'
p933
sS'low_fuses'
p934
S'0xFF'
p935
sS'lock_bits'
p936
S'0x0F'
p937
sS'file'
p938
S'ATmegaBOOT_168_atmega328_pro_8MHz.hex'
p939
sS'path'
p940
S'atmega'
p941
sS'unlock_bits'
p942
S'0x3F'
p943
ssS'build'
p944
(dp945
S'core'
p946
S'arduino'
p947
sS'mcu'
p948
S'atmega328p'
p949
sS'f_cpu'
p950
S'8000000L'
p951
sS'variant'
p952
S'standard'
p953
ssS'name'
p954
S'Arduino Pro or Pro Mini (3.3V, 8 MHz) w/ ATmega328'
p955
sS'upload'
p956
(dp957
S'speed'
p958
S'57600'
p959
sS'maximum_size'
p960
S'30720'
p961
sS'protocol'
p962
S'arduino'
p963
ssaa(lp964
S'pro'
p965
a(dp966
S'bootloader'
p967
(dp968
S'extended_fuses'
p969
S'0x00'
p970
sS'high_fuses'
p971
S'0xdd'
p972
sS'low_fuses'
p973
S'0xc6'
p974
sS'lock_bits'
p975
S'0x0F'
p976
sS'file'
p977
S'ATmegaBOOT_168_pro_8MHz.hex'
p978
sS'path'
p979
S'atmega'
p980
sS'unlock_bits'
p981
S'0x3F'
p982
ssS'build'
p983
(dp984
S'core'
p985
S'arduino'
p986
sS'mcu'
p987
S'atmega168'
p988
sS'f_cpu'
p989
S'8000000L'
p990
sS'variant'
p991
S'standard'
p992
ssS'name'
p993
S'Arduino Pro or Pro Mini (3.3V, 8 MHz) w/ ATmega168'
p994
sS'upload'
p995
(dp996
S'speed'
p997
S'19200'
p998
sS'maximum_size'
p999
S'14336'
p1000
sS'protocol'
p1001
S'arduino'
p1002
ssaa(lp1003
S'atmega168'
p1004
a(dp1005
S'bootloader'
p1006
(dp1007
S'extended_fuses'
p1008
S'0x00'
p1009
sS'high_fuses'
p1010
S'0xdd'
p1011
sS'low_fuses'
p1012
S'0xff'
p1013
sS'lock_bits'
p1014
S'0x0F'
p1015
sS'file'
p1016
S'ATmegaBOOT_168_ng.hex'
p1017
sS'path'
p1018
S'atmega'
p1019
sS'unlock_bits'
p1020
S'0x3F'
p1021
ssS'build'
p1022
(dp1023
S'core'
p1024
S'arduino'
p1025
sS'mcu'
p1026
S'atmega168'
p1027
sS'f_cpu'
p1028
S'16000000L'
p1029
sS'variant'
p1030
S'standard'
p1031
ssS'name'
p1032
S'Arduino NG or older w/ ATmega168'
p1033
sS'upload'
p1034
(dp1035
S'speed'
p1036
S'19200'
p1037
sS'maximum_size'
p1038
S'14336'
p1039
sS'protocol'
p1040
S'arduino'
p1041
ssaa(lp1042
S'atmega8'
p1043
a(dp1044
S'bootloader'
p1045
(dp1046
S'high_fuses'
p1047
S'0xca'
p1048
sS'low_fuses'
p1049
S'0xdf'
p1050
sS'lock_bits'
p1051
S'0x0F'
p1052
sS'file'
p1053
S'ATmegaBOOT-prod-firmware-2009-11-07.hex'
p1054
sS'path'
p1055
S'atmega8'
p1056
sS'unlock_bits'
p1057
S'0x3F'
p1058
ssS'build'
p1059
(dp1060
S'core'
p1061
S'arduino'
p1062
sS'mcu'
p1063
S'atmega8'
p1064
sS'f_cpu'
p1065
S'16000000L'
p1066
sS'variant'
p1067
S'standard'
p1068
ssS'name'
p1069
S'Arduino NG or older w/ ATmega8'
p1070
sS'upload'
p1071
(dp1072
S'speed'
p1073
S'19200'
p1074
sS'maximum_size'
p1075
S'7168'
p1076
sS'protocol'
p1077
S'arduino'
p1078
ssaa(lp1079
S'robotControl'
p1080
a(dp1081
S'bootloader'
p1082
(dp1083
S'extended_fuses'
p1084
S'0xcb'
p1085
sS'high_fuses'
p1086
S'0xd8'
p1087
sS'low_fuses'
p1088
S'0xff'
p1089
sS'lock_bits'
p1090
S'0x2F'
p1091
sS'file'
p1092
S'Caterina-Robot-Control.hex'
p1093
sS'path'
p1094
S'caterina-Arduino_Robot'
p1095
sS'unlock_bits'
p1096
S'0x3F'
p1097
ssS'build'
p1098
(dp1099
S'core'
p1100
S'robot'
p1101
sS'f_cpu'
p1102
S'16000000L'
p1103
sS'vid'
p1104
S'0x2341'
p1105
sS'pid'
p1106
S'0x8038'
p1107
sS'variant'
p1108
S'robot_control'
p1109
sS'mcu'
p1110
S'atmega32u4'
p1111
ssS'name'
p1112
S'Arduino Robot Control'
p1113
sS'upload'
p1114
(dp1115
S'speed'
p1116
S'57600'
p1117
sS'maximum_size'
p1118
S'28672'
p1119
sS'protocol'
p1120
S'avr109'
p1121
sS'disable_flushing'
p1122
S'true'
p1123
ssaa(lp1124
S'robotMotor'
p1125
a(dp1126
S'bootloader'
p1127
(dp1128
S'extended_fuses'
p1129
S'0xcb'
p1130
sS'high_fuses'
p1131
S'0xd8'
p1132
sS'low_fuses'
p1133
S'0xff'
p1134
sS'lock_bits'
p1135
S'0x2F'
p1136
sS'file'
p1137
S'Caterina-Robot-Motor.hex'
p1138
sS'path'
p1139
S'caterina-Arduino_Robot'
p1140
sS'unlock_bits'
p1141
S'0x3F'
p1142
ssS'build'
p1143
(dp1144
S'core'
p1145
S'robot'
p1146
sS'f_cpu'
p1147
S'16000000L'
p1148
sS'vid'
p1149
S'0x2341'
p1150
sS'pid'
p1151
S'0x8039'
p1152
sS'variant'
p1153
S'robot_motor'
p1154
sS'mcu'
p1155
S'atmega32u4'
p1156
ssS'name'
p1157
S'Arduino Robot Motor'
p1158
sS'upload'
p1159
(dp1160
S'speed'
p1161
S'57600'
p1162
sS'maximum_size'
p1163
S'28672'
p1164
sS'protocol'
p1165
S'avr109'
p1166
sS'disable_flushing'
p1167
S'true'
p1168
ssaatp1169
Rp1170
(dp1171
S'default'
p1172
S'uno'
p1173
sbtp1174
a(S'used_libs'
p1175
(lp1176
S'lib/SumoSense'
p1177
aS'lib/redbot'
p1178
aS'/usr/share/arduino/hardware/arduino/cores/arduino'
p1179
atp1180
a(S'make'
p1181
S'/usr/share/arduino/hardware/tools/avr/bin/make'
p1182
tp1183
a(S'arduino_libraries_dir'
p1184
S'/usr/share/arduino/libraries'
p1185
tp1186
a(S'cc'
p1187
S'/usr/share/arduino/hardware/tools/avr/bin/avr-gcc'
p1188
tp1189
a(S'cflags'
p1190
g2
(g3
g4
(lp1191
tp1192
Rp1193
tp1194
a(S'cxxflags'
p1195
g2
(g3
g4
(lp1196
S'-fno-exceptions'
p1197
atp1198
Rp1199
tp1200
a(S'arduino_variants_dir'
p1201
S'/usr/share/arduino/hardware/arduino/variants'
p1202
tp1203
a(S'serial'
p1204
S'/usr/bin/picocom'
p1205
tp1206
a(S'stty'
p1207
S'/bin/stty'
p1208
tp1209
a(S'version.txt'
p1210
S'/usr/share/arduino/lib/version.txt'
p1211
tp1212
a(S'arduino_core_dir'
p1213
g1179
tp1214
a(S'boards.txt'
p1215
S'/usr/share/arduino/hardware/arduino/boards.txt'
p1216
tp1217
a(S'avrdude.conf'
p1218
S'/usr/share/arduino/hardware/tools/avrdude.conf'
p1219
tp1220
a(S'deps'
p1221
g2
(g3
g4
(lp1222
S'.build/uno/src/dependencies.d'
p1223
aS'.build/uno/arduino/dependencies.d'
p1224
aS'.build/uno/SumoSense/dependencies.d'
p1225
aS'.build/uno/redbot/dependencies.d'
p1226
atp1227
Rp1228
tp1229
a.